; ModuleID = '33/2725.c'
source_filename = "33/2725.c"
target datalayout = "e-m:e-p270:32:32-p271:32:32-p272:64:64-i64:64-f80:128-n8:16:32:64-S128"
target triple = "x86_64-pc-linux-gnu"

@.str = private unnamed_addr constant [3 x i8] c"%d\00", align 1
@.str.1 = private unnamed_addr constant [3 x i8] c"%s\00", align 1
@.str.2 = private unnamed_addr constant [4 x i8] c"%s\0A\00", align 1

; Function Attrs: noinline nounwind uwtable
define dso_local i32 @main() #0 {
  %1 = alloca i32, align 4
  %2 = alloca [1000 x [256 x i8]], align 16
  %3 = alloca i32, align 4
  %4 = alloca i32, align 4
  %5 = alloca i32, align 4
  %6 = alloca i32, align 4
  %7 = alloca i32, align 4
  %8 = alloca i32, align 4
  store i32 0, i32* %1, align 4
  %9 = call i32 (i8*, ...) @__isoc99_scanf(i8* getelementptr inbounds ([3 x i8], [3 x i8]* @.str, i64 0, i64 0), i32* %3)
  store i32 0, i32* %5, align 4
  br label %10

10:                                               ; preds = %20, %0
  %11 = load i32, i32* %5, align 4
  %12 = load i32, i32* %3, align 4
  %13 = icmp slt i32 %11, %12
  br i1 %13, label %14, label %23

14:                                               ; preds = %10
  %15 = load i32, i32* %5, align 4
  %16 = sext i32 %15 to i64
  %17 = getelementptr inbounds [1000 x [256 x i8]], [1000 x [256 x i8]]* %2, i64 0, i64 %16
  %18 = getelementptr inbounds [256 x i8], [256 x i8]* %17, i64 0, i64 0
  %19 = call i32 (i8*, ...) @__isoc99_scanf(i8* getelementptr inbounds ([3 x i8], [3 x i8]* @.str.1, i64 0, i64 0), i8* %18)
  br label %20

20:                                               ; preds = %14
  %21 = load i32, i32* %5, align 4
  %22 = add nsw i32 %21, 1
  store i32 %22, i32* %5, align 4
  br label %10

23:                                               ; preds = %10
  store i32 0, i32* %6, align 4
  br label %24

24:                                               ; preds = %116, %23
  %25 = load i32, i32* %6, align 4
  %26 = load i32, i32* %3, align 4
  %27 = icmp slt i32 %25, %26
  br i1 %27, label %28, label %119

28:                                               ; preds = %24
  %29 = load i32, i32* %6, align 4
  %30 = sext i32 %29 to i64
  %31 = getelementptr inbounds [1000 x [256 x i8]], [1000 x [256 x i8]]* %2, i64 0, i64 %30
  %32 = getelementptr inbounds [256 x i8], [256 x i8]* %31, i64 0, i64 0
  %33 = call i64 @strlen(i8* %32) #3
  %34 = trunc i64 %33 to i32
  store i32 %34, i32* %4, align 4
  %35 = load i32, i32* %6, align 4
  %36 = sext i32 %35 to i64
  %37 = getelementptr inbounds [1000 x [256 x i8]], [1000 x [256 x i8]]* %2, i64 0, i64 %36
  %38 = load i32, i32* %4, align 4
  %39 = sext i32 %38 to i64
  %40 = getelementptr inbounds [256 x i8], [256 x i8]* %37, i64 0, i64 %39
  store i8 0, i8* %40, align 1
  store i32 0, i32* %7, align 4
  br label %41

41:                                               ; preds = %112, %28
  %42 = load i32, i32* %6, align 4
  %43 = sext i32 %42 to i64
  %44 = getelementptr inbounds [1000 x [256 x i8]], [1000 x [256 x i8]]* %2, i64 0, i64 %43
  %45 = load i32, i32* %7, align 4
  %46 = sext i32 %45 to i64
  %47 = getelementptr inbounds [256 x i8], [256 x i8]* %44, i64 0, i64 %46
  %48 = load i8, i8* %47, align 1
  %49 = sext i8 %48 to i32
  %50 = icmp ne i32 %49, 0
  br i1 %50, label %51, label %115

51:                                               ; preds = %41
  %52 = load i32, i32* %6, align 4
  %53 = sext i32 %52 to i64
  %54 = getelementptr inbounds [1000 x [256 x i8]], [1000 x [256 x i8]]* %2, i64 0, i64 %53
  %55 = load i32, i32* %7, align 4
  %56 = sext i32 %55 to i64
  %57 = getelementptr inbounds [256 x i8], [256 x i8]* %54, i64 0, i64 %56
  %58 = load i8, i8* %57, align 1
  %59 = sext i8 %58 to i32
  %60 = icmp eq i32 %59, 65
  br i1 %60, label %61, label %68

61:                                               ; preds = %51
  %62 = load i32, i32* %6, align 4
  %63 = sext i32 %62 to i64
  %64 = getelementptr inbounds [1000 x [256 x i8]], [1000 x [256 x i8]]* %2, i64 0, i64 %63
  %65 = load i32, i32* %7, align 4
  %66 = sext i32 %65 to i64
  %67 = getelementptr inbounds [256 x i8], [256 x i8]* %64, i64 0, i64 %66
  store i8 84, i8* %67, align 1
  br label %111

68:                                               ; preds = %51
  %69 = load i32, i32* %6, align 4
  %70 = sext i32 %69 to i64
  %71 = getelementptr inbounds [1000 x [256 x i8]], [1000 x [256 x i8]]* %2, i64 0, i64 %70
  %72 = load i32, i32* %7, align 4
  %73 = sext i32 %72 to i64
  %74 = getelementptr inbounds [256 x i8], [256 x i8]* %71, i64 0, i64 %73
  %75 = load i8, i8* %74, align 1
  %76 = sext i8 %75 to i32
  %77 = icmp eq i32 %76, 84
  br i1 %77, label %78, label %85

78:                                               ; preds = %68
  %79 = load i32, i32* %6, align 4
  %80 = sext i32 %79 to i64
  %81 = getelementptr inbounds [1000 x [256 x i8]], [1000 x [256 x i8]]* %2, i64 0, i64 %80
  %82 = load i32, i32* %7, align 4
  %83 = sext i32 %82 to i64
  %84 = getelementptr inbounds [256 x i8], [256 x i8]* %81, i64 0, i64 %83
  store i8 65, i8* %84, align 1
  br label %110

85:                                               ; preds = %68
  %86 = load i32, i32* %6, align 4
  %87 = sext i32 %86 to i64
  %88 = getelementptr inbounds [1000 x [256 x i8]], [1000 x [256 x i8]]* %2, i64 0, i64 %87
  %89 = load i32, i32* %7, align 4
  %90 = sext i32 %89 to i64
  %91 = getelementptr inbounds [256 x i8], [256 x i8]* %88, i64 0, i64 %90
  %92 = load i8, i8* %91, align 1
  %93 = sext i8 %92 to i32
  %94 = icmp eq i32 %93, 67
  br i1 %94, label %95, label %102

95:                                               ; preds = %85
  %96 = load i32, i32* %6, align 4
  %97 = sext i32 %96 to i64
  %98 = getelementptr inbounds [1000 x [256 x i8]], [1000 x [256 x i8]]* %2, i64 0, i64 %97
  %99 = load i32, i32* %7, align 4
  %100 = sext i32 %99 to i64
  %101 = getelementptr inbounds [256 x i8], [256 x i8]* %98, i64 0, i64 %100
  store i8 71, i8* %101, align 1
  br label %109

102:                                              ; preds = %85
  %103 = load i32, i32* %6, align 4
  %104 = sext i32 %103 to i64
  %105 = getelementptr inbounds [1000 x [256 x i8]], [1000 x [256 x i8]]* %2, i64 0, i64 %104
  %106 = load i32, i32* %7, align 4
  %107 = sext i32 %106 to i64
  %108 = getelementptr inbounds [256 x i8], [256 x i8]* %105, i64 0, i64 %107
  store i8 67, i8* %108, align 1
  br label %109

109:                                              ; preds = %102, %95
  br label %110

110:                                              ; preds = %109, %78
  br label %111

111:                                              ; preds = %110, %61
  br label %112

112:                                              ; preds = %111
  %113 = load i32, i32* %7, align 4
  %114 = add nsw i32 %113, 1
  store i32 %114, i32* %7, align 4
  br label %41

115:                                              ; preds = %41
  br label %116

116:                                              ; preds = %115
  %117 = load i32, i32* %6, align 4
  %118 = add nsw i32 %117, 1
  store i32 %118, i32* %6, align 4
  br label %24

119:                                              ; preds = %24
  store i32 0, i32* %8, align 4
  br label %120

120:                                              ; preds = %130, %119
  %121 = load i32, i32* %8, align 4
  %122 = load i32, i32* %3, align 4
  %123 = icmp slt i32 %121, %122
  br i1 %123, label %124, label %133

124:                                              ; preds = %120
  %125 = load i32, i32* %8, align 4
  %126 = sext i32 %125 to i64
  %127 = getelementptr inbounds [1000 x [256 x i8]], [1000 x [256 x i8]]* %2, i64 0, i64 %126
  %128 = getelementptr inbounds [256 x i8], [256 x i8]* %127, i64 0, i64 0
  %129 = call i32 (i8*, ...) @printf(i8* getelementptr inbounds ([4 x i8], [4 x i8]* @.str.2, i64 0, i64 0), i8* %128)
  br label %130

130:                                              ; preds = %124
  %131 = load i32, i32* %8, align 4
  %132 = add nsw i32 %131, 1
  store i32 %132, i32* %8, align 4
  br label %120

133:                                              ; preds = %120
  ret i32 0
}

declare dso_local i32 @__isoc99_scanf(i8*, ...) #1

; Function Attrs: nounwind readonly
declare dso_local i64 @strlen(i8*) #2

declare dso_local i32 @printf(i8*, ...) #1


!llvm.module.flags = !{!0}
!llvm.ident = !{!1}

!0 = !{i32 1, !"wchar_size", i32 4}
!1 = !{!"clang version 10.0.0-4ubuntu1 "}
